; Function Attrs: nounwind uwtable
define void @Int2_ManStop(ptr noundef %0) local_unnamed_addr #0 {
  %2 = icmp eq ptr %0, null
  br i1 %2, label %15, label %3

3:                                                ; preds = %1
  %4 = getelementptr inbounds nuw i8, ptr %0, i64 24
  tail call void @Gia_ManStopP(ptr noundef nonnull %4) #20
  %5 = getelementptr inbounds nuw i8, ptr %0, i64 8
  %6 = load ptr, ptr %5, align 8, !tbaa !17
  %7 = getelementptr inbounds nuw i8, ptr %6, i64 8
  %8 = load ptr, ptr %7, align 8, !tbaa !16
  %.not.i = icmp eq ptr %8, null
  br i1 %.not.i, label %Vec_IntFree.exit, label %9

9:                                                ; preds = %3
  tail call void @free(ptr noundef nonnull %8) #20
  br label %Vec_IntFree.exit

Vec_IntFree.exit:                                 ; preds = %3, %9
  tail call void @free(ptr noundef nonnull %6) #20
  %10 = getelementptr inbounds nuw i8, ptr %0, i64 16
  %11 = load ptr, ptr %10, align 8, !tbaa !22
  %12 = getelementptr inbounds nuw i8, ptr %11, i64 8
  %13 = load ptr, ptr %12, align 8, !tbaa !16
  %.not.i6 = icmp eq ptr %13, null
  br i1 %.not.i6, label %Vec_IntFree.exit7, label %14

14:                                               ; preds = %Vec_IntFree.exit
  tail call void @free(ptr noundef nonnull %13) #20
  br label %Vec_IntFree.exit7

Vec_IntFree.exit7:                                ; preds = %Vec_IntFree.exit, %14
  tail call void @free(ptr noundef nonnull %11) #20
  tail call void @free(ptr noundef nonnull %0) #20
  br label %15

15:                                               ; preds = %Vec_IntFree.exit7, %1
  ret void
}